; Function Attrs: mustprogress uwtable
define hidden noundef i32 @_ZN4ncnn17get_big_cpu_countEv() local_unnamed_addr #5 {
  tail call fastcc void @_ZL30try_initialize_global_cpu_infov()
  tail call fastcc void @_ZL30try_initialize_global_cpu_infov()
  br label %_ZNK4ncnn6CpuSet10is_enabledEi.exit.i

_ZNK4ncnn6CpuSet10is_enabledEi.exit.i:            ; preds = %_ZNK4ncnn6CpuSet10is_enabledEi.exit.i, %0
  %indvars.iv.i = phi i64 [ 0, %0 ], [ %indvars.iv.next.i, %_ZNK4ncnn6CpuSet10is_enabledEi.exit.i ]
  %.056.i = phi i32 [ 0, %0 ], [ %spec.select.i, %_ZNK4ncnn6CpuSet10is_enabledEi.exit.i ]
  %1 = lshr i64 %indvars.iv.i, 6
  %2 = getelementptr inbounds nuw i64, ptr @_ZL23g_cpu_affinity_mask_big, i64 %1
  %3 = load i64, ptr %2, align 8, !tbaa !4
  %4 = and i64 %indvars.iv.i, 63
  %5 = lshr i64 %3, %4
  %6 = trunc i64 %5 to i32
  %7 = and i32 %6, 1
  %spec.select.i = add nuw nsw i32 %7, %.056.i
  %indvars.iv.next.i = add nuw nsw i64 %indvars.iv.i, 1
  %exitcond.not.i = icmp eq i64 %indvars.iv.next.i, 1024
  br i1 %exitcond.not.i, label %_ZNK4ncnn6CpuSet11num_enabledEv.exit, label %_ZNK4ncnn6CpuSet10is_enabledEi.exit.i, !llvm.loop !8

_ZNK4ncnn6CpuSet11num_enabledEv.exit:             ; preds = %_ZNK4ncnn6CpuSet10is_enabledEi.exit.i
  %.not = icmp eq i32 %spec.select.i, 0
  %8 = load i32, ptr @_ZL10g_cpucount, align 4
  %9 = select i1 %.not, i32 %8, i32 %spec.select.i
  ret i32 %9
}